target datalayout = "e-m:e-p270:32:32-p271:32:32-p272:64:64-i64:64-i128:128-f80:128-n8:16:32:64-S128"
target triple = "x86_64-unknown-linux-gnu"

%struct.aiNode = type { %struct.aiString, %class.aiMatrix4x4t, ptr, i32, ptr, i32, ptr, ptr }
%struct.aiString = type { i32, [1024 x i8] }
%class.aiMatrix4x4t = type { float, float, float, float, float, float, float, float, float, float, float, float, float, float, float, float }
%"struct.std::_Vector_base" = type { %"struct.std::_Vector_base<unsigned int, std::allocator<unsigned int>>::_Vector_impl" }
%"struct.std::_Vector_base<unsigned int, std::allocator<unsigned int>>::_Vector_impl" = type { %"struct.std::_Vector_base<unsigned int, std::allocator<unsigned int>>::_Vector_impl_data" }
%"struct.std::_Vector_base<unsigned int, std::allocator<unsigned int>>::_Vector_impl_data" = type { ptr, ptr, ptr }

@.str.2 = private unnamed_addr constant [17 x i8] c"Invalid mesh ref\00", align 1
@_ZTI17DeadlyImportError = linkonce_odr constant { ptr, ptr, ptr } { ptr getelementptr inbounds (ptr, ptr @_ZTVN10__cxxabiv120__si_class_type_infoE, i64 2), ptr @_ZTS17DeadlyImportError, ptr @_ZTI15DeadlyErrorBase }, comdat, align 8

; Function Attrs: mustprogress nounwind uwtable
define linkonce_odr noundef nonnull align 4 dereferenceable(4) ptr @_ZNKSt6vectorIjSaIjEEixEm(ptr noundef nonnull align 8 dereferenceable(24) %this, i64 noundef %__n) #0 comdat align 2 {
entry:
  %this.addr = alloca ptr, align 8
  %__n.addr = alloca i64, align 8
  store ptr %this, ptr %this.addr, align 8
  store i64 %__n, ptr %__n.addr, align 8
  %this1 = load ptr, ptr %this.addr, align 8
  %_M_impl = getelementptr inbounds %"struct.std::_Vector_base", ptr %this1, i32 0, i32 0
  %_M_start = getelementptr inbounds %"struct.std::_Vector_base<unsigned int, std::allocator<unsigned int>>::_Vector_impl_data", ptr %_M_impl, i32 0, i32 0
  %0 = load ptr, ptr %_M_start, align 8
  %1 = load i64, ptr %__n.addr, align 8
  %add.ptr = getelementptr inbounds i32, ptr %0, i64 %1
  ret ptr %add.ptr
}

; Function Attrs: mustprogress nounwind uwtable
define linkonce_odr noundef i64 @_ZNKSt6vectorIjSaIjEE4sizeEv(ptr noundef nonnull align 8 dereferenceable(24) %this) #0 comdat align 2 {
entry:
  %this.addr = alloca ptr, align 8
  store ptr %this, ptr %this.addr, align 8
  %this1 = load ptr, ptr %this.addr, align 8
  %_M_impl = getelementptr inbounds %"struct.std::_Vector_base", ptr %this1, i32 0, i32 0
  %_M_finish = getelementptr inbounds %"struct.std::_Vector_base<unsigned int, std::allocator<unsigned int>>::_Vector_impl_data", ptr %_M_impl, i32 0, i32 1
  %0 = load ptr, ptr %_M_finish, align 8
  %_M_impl2 = getelementptr inbounds %"struct.std::_Vector_base", ptr %this1, i32 0, i32 0
  %_M_start = getelementptr inbounds %"struct.std::_Vector_base<unsigned int, std::allocator<unsigned int>>::_Vector_impl_data", ptr %_M_impl2, i32 0, i32 0
  %1 = load ptr, ptr %_M_start, align 8
  %sub.ptr.lhs.cast = ptrtoint ptr %0 to i64
  %sub.ptr.rhs.cast = ptrtoint ptr %1 to i64
  %sub.ptr.sub = sub i64 %sub.ptr.lhs.cast, %sub.ptr.rhs.cast
  %sub.ptr.div = sdiv exact i64 %sub.ptr.sub, 4
  ret i64 %sub.ptr.div
}

; Function Attrs: mustprogress uwtable
define hidden void @_Z20UpdateMeshReferencesP6aiNodeRKSt6vectorIjSaIjEE(ptr noundef %node, ptr noundef nonnull align 8 dereferenceable(24) %meshMapping) #3 personality ptr @__gxx_personality_v0 {
entry:
  %node.addr = alloca ptr, align 8
  %meshMapping.addr = alloca ptr, align 8
  %out = alloca i32, align 4
  %a = alloca i32, align 4
  %ref = alloca i32, align 4
  %exn.slot = alloca ptr, align 8
  %ehselector.slot = alloca i32, align 4
  %i = alloca i32, align 4
  store ptr %node, ptr %node.addr, align 8
  store ptr %meshMapping, ptr %meshMapping.addr, align 8
  %0 = load ptr, ptr %node.addr, align 8
  %mNumMeshes = getelementptr inbounds %struct.aiNode, ptr %0, i32 0, i32 5
  %1 = load i32, ptr %mNumMeshes, align 8
  %tobool = icmp ne i32 %1, 0
  br i1 %tobool, label %if.then, label %if.end19

if.then:                                          ; preds = %entry
  store i32 0, ptr %out, align 4
  store i32 0, ptr %a, align 4
  br label %for.cond

for.cond:                                         ; preds = %for.inc, %if.then
  %2 = load i32, ptr %a, align 4
  %3 = load ptr, ptr %node.addr, align 8
  %mNumMeshes1 = getelementptr inbounds %struct.aiNode, ptr %3, i32 0, i32 5
  %4 = load i32, ptr %mNumMeshes1, align 8
  %cmp = icmp ult i32 %2, %4
  br i1 %cmp, label %for.body, label %for.end

for.body:                                         ; preds = %for.cond
  %5 = load ptr, ptr %node.addr, align 8
  %mMeshes = getelementptr inbounds %struct.aiNode, ptr %5, i32 0, i32 6
  %6 = load ptr, ptr %mMeshes, align 8
  %7 = load i32, ptr %a, align 4
  %idxprom = zext i32 %7 to i64
  %arrayidx = getelementptr inbounds i32, ptr %6, i64 %idxprom
  %8 = load i32, ptr %arrayidx, align 4
  store i32 %8, ptr %ref, align 4
  %9 = load i32, ptr %ref, align 4
  %conv = zext i32 %9 to i64
  %10 = load ptr, ptr %meshMapping.addr, align 8
  %call = call noundef i64 @_ZNKSt6vectorIjSaIjEE4sizeEv(ptr noundef nonnull align 8 dereferenceable(24) %10) #14
  %cmp2 = icmp uge i64 %conv, %call
  br i1 %cmp2, label %if.then3, label %if.end

if.then3:                                         ; preds = %for.body
  %exception = call ptr @__cxa_allocate_exception(i64 16) #14
  invoke void @_ZN17DeadlyImportErrorC2EPKc(ptr noundef nonnull align 8 dereferenceable(16) %exception, ptr noundef @.str.2)
          to label %invoke.cont unwind label %lpad

invoke.cont:                                      ; preds = %if.then3
  call void @__cxa_throw(ptr %exception, ptr @_ZTI17DeadlyImportError, ptr @_ZN17DeadlyImportErrorD2Ev) #15
  unreachable

lpad:                                             ; preds = %if.then3
  %11 = landingpad { ptr, i32 }
          cleanup
  %12 = extractvalue { ptr, i32 } %11, 0
  store ptr %12, ptr %exn.slot, align 8
  %13 = extractvalue { ptr, i32 } %11, 1
  store i32 %13, ptr %ehselector.slot, align 4
  call void @__cxa_free_exception(ptr %exception) #14
  br label %eh.resume

if.end:                                           ; preds = %for.body
  %14 = load ptr, ptr %meshMapping.addr, align 8
  %15 = load i32, ptr %ref, align 4
  %conv4 = zext i32 %15 to i64
  %call5 = call noundef nonnull align 4 dereferenceable(4) ptr @_ZNKSt6vectorIjSaIjEEixEm(ptr noundef nonnull align 8 dereferenceable(24) %14, i64 noundef %conv4) #14
  %16 = load i32, ptr %call5, align 4
  store i32 %16, ptr %ref, align 4
  %cmp6 = icmp ne i32 -1, %16
  br i1 %cmp6, label %if.then7, label %if.end11

if.then7:                                         ; preds = %if.end
  %17 = load i32, ptr %ref, align 4
  %18 = load ptr, ptr %node.addr, align 8
  %mMeshes8 = getelementptr inbounds %struct.aiNode, ptr %18, i32 0, i32 6
  %19 = load ptr, ptr %mMeshes8, align 8
  %20 = load i32, ptr %out, align 4
  %inc = add i32 %20, 1
  store i32 %inc, ptr %out, align 4
  %idxprom9 = zext i32 %20 to i64
  %arrayidx10 = getelementptr inbounds i32, ptr %19, i64 %idxprom9
  store i32 %17, ptr %arrayidx10, align 4
  br label %if.end11

if.end11:                                         ; preds = %if.then7, %if.end
  br label %for.inc

for.inc:                                          ; preds = %if.end11
  %21 = load i32, ptr %a, align 4
  %inc12 = add i32 %21, 1
  store i32 %inc12, ptr %a, align 4
  br label %for.cond, !llvm.loop !4

for.end:                                          ; preds = %for.cond
  %22 = load i32, ptr %out, align 4
  %23 = load ptr, ptr %node.addr, align 8
  %mNumMeshes13 = getelementptr inbounds %struct.aiNode, ptr %23, i32 0, i32 5
  store i32 %22, ptr %mNumMeshes13, align 8
  %24 = load i32, ptr %out, align 4
  %cmp14 = icmp eq i32 0, %24
  br i1 %cmp14, label %if.then15, label %if.end18

if.then15:                                        ; preds = %for.end
  %25 = load ptr, ptr %node.addr, align 8
  %mMeshes16 = getelementptr inbounds %struct.aiNode, ptr %25, i32 0, i32 6
  %26 = load ptr, ptr %mMeshes16, align 8
  %isnull = icmp eq ptr %26, null
  br i1 %isnull, label %delete.end, label %delete.notnull

delete.notnull:                                   ; preds = %if.then15
  call void @_ZdaPv(ptr noundef %26) #16
  br label %delete.end

delete.end:                                       ; preds = %delete.notnull, %if.then15
  %27 = load ptr, ptr %node.addr, align 8
  %mMeshes17 = getelementptr inbounds %struct.aiNode, ptr %27, i32 0, i32 6
  store ptr null, ptr %mMeshes17, align 8
  br label %if.end18

if.end18:                                         ; preds = %delete.end, %for.end
  br label %if.end19

if.end19:                                         ; preds = %if.end18, %entry
  store i32 0, ptr %i, align 4
  br label %for.cond20

for.cond20:                                       ; preds = %for.inc25, %if.end19
  %28 = load i32, ptr %i, align 4
  %29 = load ptr, ptr %node.addr, align 8
  %mNumChildren = getelementptr inbounds %struct.aiNode, ptr %29, i32 0, i32 3
  %30 = load i32, ptr %mNumChildren, align 8
  %cmp21 = icmp ult i32 %28, %30
  br i1 %cmp21, label %for.body22, label %for.end27

for.body22:                                       ; preds = %for.cond20
  %31 = load ptr, ptr %node.addr, align 8
  %mChildren = getelementptr inbounds %struct.aiNode, ptr %31, i32 0, i32 4
  %32 = load ptr, ptr %mChildren, align 8
  %33 = load i32, ptr %i, align 4
  %idxprom23 = zext i32 %33 to i64
  %arrayidx24 = getelementptr inbounds ptr, ptr %32, i64 %idxprom23
  %34 = load ptr, ptr %arrayidx24, align 8
  %35 = load ptr, ptr %meshMapping.addr, align 8
  call void @_Z20UpdateMeshReferencesP6aiNodeRKSt6vectorIjSaIjEE(ptr noundef %34, ptr noundef nonnull align 8 dereferenceable(24) %35)
  br label %for.inc25

for.inc25:                                        ; preds = %for.body22
  %36 = load i32, ptr %i, align 4
  %inc26 = add i32 %36, 1
  store i32 %inc26, ptr %i, align 4
  br label %for.cond20, !llvm.loop !6

for.end27:                                        ; preds = %for.cond20
  ret void

eh.resume:                                        ; preds = %lpad
  %exn = load ptr, ptr %exn.slot, align 8
  %sel = load i32, ptr %ehselector.slot, align 4
  %lpad.val = insertvalue { ptr, i32 } poison, ptr %exn, 0
  %lpad.val28 = insertvalue { ptr, i32 } %lpad.val, i32 %sel, 1
  resume { ptr, i32 } %lpad.val28
}