; Function Attrs: mustprogress uwtable
define hidden void @_Z20UpdateMeshReferencesP6aiNodeRKSt6vectorIjSaIjEE(ptr nocapture noundef %node, ptr nocapture noundef nonnull readonly align 8 dereferenceable(24) %meshMapping) local_unnamed_addr #3 personality ptr @__gxx_personality_v0 {
entry:
  %mNumMeshes = getelementptr inbounds i8, ptr %node, i64 1120
  %0 = load i32, ptr %mNumMeshes, align 8
  %tobool.not = icmp eq i32 %0, 0
  br i1 %tobool.not, label %if.end19, label %for.body.lr.ph

for.body.lr.ph:                                   ; preds = %entry
  %mMeshes = getelementptr inbounds i8, ptr %node, i64 1128
  %_M_finish.i = getelementptr inbounds i8, ptr %meshMapping, i64 8
  br label %for.body

for.body:                                         ; preds = %for.body.lr.ph, %for.inc
  %1 = phi i32 [ %0, %for.body.lr.ph ], [ %8, %for.inc ]
  %indvars.iv = phi i64 [ 0, %for.body.lr.ph ], [ %indvars.iv.next, %for.inc ]
  %out.024 = phi i32 [ 0, %for.body.lr.ph ], [ %out.1, %for.inc ]
  %2 = load ptr, ptr %mMeshes, align 8
  %arrayidx = getelementptr inbounds i32, ptr %2, i64 %indvars.iv
  %3 = load i32, ptr %arrayidx, align 4
  %conv = zext i32 %3 to i64
  %4 = load ptr, ptr %_M_finish.i, align 8
  %5 = load ptr, ptr %meshMapping, align 8
  %sub.ptr.lhs.cast.i = ptrtoint ptr %4 to i64
  %sub.ptr.rhs.cast.i = ptrtoint ptr %5 to i64
  %sub.ptr.sub.i = sub i64 %sub.ptr.lhs.cast.i, %sub.ptr.rhs.cast.i
  %sub.ptr.div.i = ashr exact i64 %sub.ptr.sub.i, 2
  %cmp2.not = icmp ugt i64 %sub.ptr.div.i, %conv
  br i1 %cmp2.not, label %if.end, label %if.then3

if.then3:                                         ; preds = %for.body
  %exception = tail call ptr @__cxa_allocate_exception(i64 16) #15
  invoke void @_ZN17DeadlyImportErrorC2EPKc(ptr noundef nonnull align 8 dereferenceable(16) %exception, ptr noundef nonnull @.str.2)
          to label %invoke.cont unwind label %lpad

invoke.cont:                                      ; preds = %if.then3
  tail call void @__cxa_throw(ptr nonnull %exception, ptr nonnull @_ZTI17DeadlyImportError, ptr nonnull @_ZN17DeadlyImportErrorD2Ev) #16
  unreachable

lpad:                                             ; preds = %if.then3
  %6 = landingpad { ptr, i32 }
          cleanup
  tail call void @__cxa_free_exception(ptr %exception) #15
  resume { ptr, i32 } %6

if.end:                                           ; preds = %for.body
  %add.ptr.i = getelementptr inbounds i32, ptr %5, i64 %conv
  %7 = load i32, ptr %add.ptr.i, align 4
  %cmp6.not = icmp eq i32 %7, -1
  br i1 %cmp6.not, label %for.inc, label %if.then7

if.then7:                                         ; preds = %if.end
  %inc = add i32 %out.024, 1
  %idxprom9 = zext i32 %out.024 to i64
  %arrayidx10 = getelementptr inbounds i32, ptr %2, i64 %idxprom9
  store i32 %7, ptr %arrayidx10, align 4
  %.pre = load i32, ptr %mNumMeshes, align 8
  br label %for.inc

for.inc:                                          ; preds = %if.end, %if.then7
  %8 = phi i32 [ %.pre, %if.then7 ], [ %1, %if.end ]
  %out.1 = phi i32 [ %inc, %if.then7 ], [ %out.024, %if.end ]
  %indvars.iv.next = add nuw nsw i64 %indvars.iv, 1
  %9 = zext i32 %8 to i64
  %cmp = icmp ult i64 %indvars.iv.next, %9
  br i1 %cmp, label %for.body, label %for.end, !llvm.loop !4

for.end:                                          ; preds = %for.inc
  store i32 %out.1, ptr %mNumMeshes, align 8
  %cmp14 = icmp eq i32 %out.1, 0
  br i1 %cmp14, label %if.then15, label %if.end19

if.then15:                                        ; preds = %for.end
  %mMeshes16 = getelementptr inbounds i8, ptr %node, i64 1128
  %10 = load ptr, ptr %mMeshes16, align 8
  %isnull = icmp eq ptr %10, null
  br i1 %isnull, label %delete.end, label %delete.notnull

delete.notnull:                                   ; preds = %if.then15
  tail call void @_ZdaPv(ptr noundef nonnull %10) #17
  br label %delete.end

delete.end:                                       ; preds = %delete.notnull, %if.then15
  store ptr null, ptr %mMeshes16, align 8
  br label %if.end19

if.end19:                                         ; preds = %for.end, %delete.end, %entry
  %mNumChildren = getelementptr inbounds i8, ptr %node, i64 1104
  %11 = load i32, ptr %mNumChildren, align 8
  %cmp2125.not = icmp eq i32 %11, 0
  br i1 %cmp2125.not, label %for.end27, label %for.body22.lr.ph

for.body22.lr.ph:                                 ; preds = %if.end19
  %mChildren = getelementptr inbounds i8, ptr %node, i64 1112
  br label %for.body22

for.body22:                                       ; preds = %for.body22.lr.ph, %for.body22
  %indvars.iv28 = phi i64 [ 0, %for.body22.lr.ph ], [ %indvars.iv.next29, %for.body22 ]
  %12 = load ptr, ptr %mChildren, align 8
  %arrayidx24 = getelementptr inbounds ptr, ptr %12, i64 %indvars.iv28
  %13 = load ptr, ptr %arrayidx24, align 8
  tail call void @_Z20UpdateMeshReferencesP6aiNodeRKSt6vectorIjSaIjEE(ptr noundef %13, ptr noundef nonnull align 8 dereferenceable(24) %meshMapping)
  %indvars.iv.next29 = add nuw nsw i64 %indvars.iv28, 1
  %14 = load i32, ptr %mNumChildren, align 8
  %15 = zext i32 %14 to i64
  %cmp21 = icmp ult i64 %indvars.iv.next29, %15
  br i1 %cmp21, label %for.body22, label %for.end27, !llvm.loop !6

for.end27:                                        ; preds = %for.body22, %if.end19
  ret void
}